target datalayout = "e-m:e-p270:32:32-p271:32:32-p272:64:64-i64:64-i128:128-f80:128-n8:16:32:64-S128"
target triple = "x86_64-pc-linux-gnu"

%struct.Ivy_Obj_t_ = type { i32, i32, i32, i32, ptr, ptr, ptr, ptr, ptr, ptr, ptr, ptr }
%struct.Ivy_FraigList_t_ = type { ptr, ptr, i32 }

; Function Attrs: inlinehint nounwind uwtable
define internal void @Ivy_ObjSetEquivListPrev(ptr noundef %0, ptr noundef %1) #4 {
  %3 = alloca ptr, align 8
  %4 = alloca ptr, align 8
  store ptr %0, ptr %3, align 8, !tbaa !72
  store ptr %1, ptr %4, align 8, !tbaa !72
  %5 = load ptr, ptr %4, align 8, !tbaa !72
  %6 = load ptr, ptr %3, align 8, !tbaa !72
  %7 = getelementptr inbounds nuw %struct.Ivy_Obj_t_, ptr %6, i32 0, i32 10
  store ptr %5, ptr %7, align 8, !tbaa !124
  ret void
}

; Function Attrs: inlinehint nounwind uwtable
define internal void @Ivy_ObjSetEquivListNext(ptr noundef %0, ptr noundef %1) #4 {
  %3 = alloca ptr, align 8
  %4 = alloca ptr, align 8
  store ptr %0, ptr %3, align 8, !tbaa !72
  store ptr %1, ptr %4, align 8, !tbaa !72
  %5 = load ptr, ptr %4, align 8, !tbaa !72
  %6 = load ptr, ptr %3, align 8, !tbaa !72
  %7 = getelementptr inbounds nuw %struct.Ivy_Obj_t_, ptr %6, i32 0, i32 9
  store ptr %5, ptr %7, align 8, !tbaa !125
  ret void
}

; Function Attrs: inlinehint nounwind uwtable
define internal ptr @Ivy_ObjEquivListPrev(ptr noundef %0) #4 {
  %2 = alloca ptr, align 8
  store ptr %0, ptr %2, align 8, !tbaa !72
  %3 = load ptr, ptr %2, align 8, !tbaa !72
  %4 = getelementptr inbounds nuw %struct.Ivy_Obj_t_, ptr %3, i32 0, i32 10
  %5 = load ptr, ptr %4, align 8, !tbaa !124
  ret ptr %5
}

; Function Attrs: inlinehint nounwind uwtable
define internal ptr @Ivy_ObjEquivListNext(ptr noundef %0) #4 {
  %2 = alloca ptr, align 8
  store ptr %0, ptr %2, align 8, !tbaa !72
  %3 = load ptr, ptr %2, align 8, !tbaa !72
  %4 = getelementptr inbounds nuw %struct.Ivy_Obj_t_, ptr %3, i32 0, i32 9
  %5 = load ptr, ptr %4, align 8, !tbaa !125
  ret ptr %5
}

; Function Attrs: nounwind uwtable
define void @Ivy_FraigRemoveClass(ptr noundef %0, ptr noundef %1) #0 {
  %3 = alloca ptr, align 8
  %4 = alloca ptr, align 8
  store ptr %0, ptr %3, align 8, !tbaa !168
  store ptr %1, ptr %4, align 8, !tbaa !72
  %5 = load ptr, ptr %3, align 8, !tbaa !168
  %6 = getelementptr inbounds nuw %struct.Ivy_FraigList_t_, ptr %5, i32 0, i32 0
  %7 = load ptr, ptr %6, align 8, !tbaa !170
  %8 = load ptr, ptr %4, align 8, !tbaa !72
  %9 = icmp eq ptr %7, %8
  br i1 %9, label %10, label %15

10:                                               ; preds = %2
  %11 = load ptr, ptr %4, align 8, !tbaa !72
  %12 = call ptr @Ivy_ObjEquivListNext(ptr noundef %11)
  %13 = load ptr, ptr %3, align 8, !tbaa !168
  %14 = getelementptr inbounds nuw %struct.Ivy_FraigList_t_, ptr %13, i32 0, i32 0
  store ptr %12, ptr %14, align 8, !tbaa !170
  br label %15

15:                                               ; preds = %10, %2
  %16 = load ptr, ptr %3, align 8, !tbaa !168
  %17 = getelementptr inbounds nuw %struct.Ivy_FraigList_t_, ptr %16, i32 0, i32 1
  %18 = load ptr, ptr %17, align 8, !tbaa !171
  %19 = load ptr, ptr %4, align 8, !tbaa !72
  %20 = icmp eq ptr %18, %19
  br i1 %20, label %21, label %26

21:                                               ; preds = %15
  %22 = load ptr, ptr %4, align 8, !tbaa !72
  %23 = call ptr @Ivy_ObjEquivListPrev(ptr noundef %22)
  %24 = load ptr, ptr %3, align 8, !tbaa !168
  %25 = getelementptr inbounds nuw %struct.Ivy_FraigList_t_, ptr %24, i32 0, i32 1
  store ptr %23, ptr %25, align 8, !tbaa !171
  br label %26

26:                                               ; preds = %21, %15
  %27 = load ptr, ptr %4, align 8, !tbaa !72
  %28 = call ptr @Ivy_ObjEquivListPrev(ptr noundef %27)
  %29 = icmp ne ptr %28, null
  br i1 %29, label %30, label %35

30:                                               ; preds = %26
  %31 = load ptr, ptr %4, align 8, !tbaa !72
  %32 = call ptr @Ivy_ObjEquivListPrev(ptr noundef %31)
  %33 = load ptr, ptr %4, align 8, !tbaa !72
  %34 = call ptr @Ivy_ObjEquivListNext(ptr noundef %33)
  call void @Ivy_ObjSetEquivListNext(ptr noundef %32, ptr noundef %34)
  br label %35

35:                                               ; preds = %30, %26
  %36 = load ptr, ptr %4, align 8, !tbaa !72
  %37 = call ptr @Ivy_ObjEquivListNext(ptr noundef %36)
  %38 = icmp ne ptr %37, null
  br i1 %38, label %39, label %44

39:                                               ; preds = %35
  %40 = load ptr, ptr %4, align 8, !tbaa !72
  %41 = call ptr @Ivy_ObjEquivListNext(ptr noundef %40)
  %42 = load ptr, ptr %4, align 8, !tbaa !72
  %43 = call ptr @Ivy_ObjEquivListPrev(ptr noundef %42)
  call void @Ivy_ObjSetEquivListPrev(ptr noundef %41, ptr noundef %43)
  br label %44

44:                                               ; preds = %39, %35
  %45 = load ptr, ptr %4, align 8, !tbaa !72
  call void @Ivy_ObjSetEquivListNext(ptr noundef %45, ptr noundef null)
  %46 = load ptr, ptr %4, align 8, !tbaa !72
  call void @Ivy_ObjSetEquivListPrev(ptr noundef %46, ptr noundef null)
  %47 = load ptr, ptr %4, align 8, !tbaa !72
  %48 = getelementptr inbounds nuw %struct.Ivy_Obj_t_, ptr %47, i32 0, i32 2
  %49 = load i32, ptr %48, align 8
  %50 = and i32 %49, -17
  %51 = or i32 %50, 0
  store i32 %51, ptr %48, align 8
  %52 = load ptr, ptr %3, align 8, !tbaa !168
  %53 = getelementptr inbounds nuw %struct.Ivy_FraigList_t_, ptr %52, i32 0, i32 2
  %54 = load i32, ptr %53, align 8, !tbaa !172
  %55 = add nsw i32 %54, -1
  store i32 %55, ptr %53, align 8, !tbaa !172
  ret void
}