; Function Attrs: mustprogress nofree norecurse nosync nounwind willreturn memory(write, argmem: readwrite, inaccessiblemem: none) uwtable
define void @Ivy_FraigRemoveClass(ptr noundef captures(none) %0, ptr noundef %1) local_unnamed_addr #12 {
  %3 = load ptr, ptr %0, align 8, !tbaa !180
  %4 = icmp eq ptr %3, %1
  br i1 %4, label %5, label %7

5:                                                ; preds = %2
  %6 = getelementptr i8, ptr %1, i64 56
  %.val21 = load ptr, ptr %6, align 8, !tbaa !182
  store ptr %.val21, ptr %0, align 8, !tbaa !180
  br label %7

7:                                                ; preds = %5, %2
  %8 = getelementptr inbounds nuw i8, ptr %0, i64 8
  %9 = load ptr, ptr %8, align 8, !tbaa !181
  %10 = icmp eq ptr %9, %1
  %11 = getelementptr i8, ptr %1, i64 64
  %.val22 = load ptr, ptr %11, align 8, !tbaa !183
  br i1 %10, label %12, label %._crit_edge

12:                                               ; preds = %7
  store ptr %.val22, ptr %8, align 8, !tbaa !181
  br label %._crit_edge

._crit_edge:                                      ; preds = %7, %12
  %.not = icmp eq ptr %.val22, null
  %.phi.trans.insert28 = getelementptr i8, ptr %1, i64 56
  %.val19.pre = load ptr, ptr %.phi.trans.insert28, align 8, !tbaa !182
  br i1 %.not, label %._crit_edge27, label %13

13:                                               ; preds = %._crit_edge
  %14 = getelementptr inbounds nuw i8, ptr %.val22, i64 56
  store ptr %.val19.pre, ptr %14, align 8, !tbaa !182
  br label %._crit_edge27

._crit_edge27:                                    ; preds = %._crit_edge, %13
  %.not18 = icmp eq ptr %.val19.pre, null
  br i1 %.not18, label %17, label %15

15:                                               ; preds = %._crit_edge27
  %16 = getelementptr inbounds nuw i8, ptr %.val19.pre, i64 64
  store ptr %.val22, ptr %16, align 8, !tbaa !183
  br label %17

17:                                               ; preds = %15, %._crit_edge27
  %18 = getelementptr i8, ptr %1, i64 56
  %19 = getelementptr inbounds nuw i8, ptr %1, i64 8
  tail call void @llvm.memset.p0.i64(ptr noundef nonnull align 8 dereferenceable(16) %18, i8 0, i64 16, i1 false)
  %20 = load i32, ptr %19, align 8
  %21 = and i32 %20, -17
  store i32 %21, ptr %19, align 8
  %22 = getelementptr inbounds nuw i8, ptr %0, i64 16
  %23 = load i32, ptr %22, align 8, !tbaa !184
  %24 = add nsw i32 %23, -1
  store i32 %24, ptr %22, align 8, !tbaa !184
  ret void
}